; Function Attrs: inlinehint mustprogress nounwind uwtable
define internal void @_ZN9grpc_core12_GLOBAL__N_120ExternalStateWatcher7WatcherD2Ev(ptr noundef nonnull align 8 captures(none) dereferenceable(40) initializes((0, 8)) %0) unnamed_addr #16 align 2 personality ptr @__gxx_personality_v0 {
  store ptr getelementptr inbounds nuw inrange(-16, 40) (i8, ptr @_ZTVN9grpc_core12_GLOBAL__N_120ExternalStateWatcher7WatcherE, i64 16), ptr %0, align 8, !tbaa !8
  %2 = getelementptr inbounds nuw i8, ptr %0, i64 32
  %.val = load ptr, ptr %2, align 8, !tbaa !307
  %.not.i = icmp eq ptr %.val, null
  br i1 %.not.i, label %_ZN9grpc_core13RefCountedPtrINS_12_GLOBAL__N_120ExternalStateWatcherEED2Ev.exit, label %3

3:                                                ; preds = %1
  %4 = getelementptr inbounds nuw i8, ptr %.val, i64 8
  %5 = atomicrmw sub ptr %4, i64 1 acq_rel, align 8
  %6 = icmp eq i64 %5, 1
  br i1 %6, label %7, label %_ZN9grpc_core13RefCountedPtrINS_12_GLOBAL__N_120ExternalStateWatcherEED2Ev.exit, !prof !26

7:                                                ; preds = %3
  %8 = load ptr, ptr %.val, align 8, !tbaa !8
  %9 = getelementptr inbounds nuw i8, ptr %8, i64 8
  %10 = load ptr, ptr %9, align 8
  tail call void %10(ptr noundef nonnull align 8 dereferenceable(112) %.val) #42
  br label %_ZN9grpc_core13RefCountedPtrINS_12_GLOBAL__N_120ExternalStateWatcherEED2Ev.exit

_ZN9grpc_core13RefCountedPtrINS_12_GLOBAL__N_120ExternalStateWatcherEED2Ev.exit: ; preds = %1, %3, %7
  store ptr getelementptr inbounds nuw inrange(-16, 40) (i8, ptr @_ZTVN9grpc_core38AsyncConnectivityStateWatcherInterfaceE, i64 16), ptr %0, align 8, !tbaa !8
  %11 = getelementptr inbounds nuw i8, ptr %0, i64 24
  %12 = load ptr, ptr %11, align 8, !tbaa !232
  %.not.i.i.i = icmp eq ptr %12, null
  br i1 %.not.i.i.i, label %_ZN9grpc_core38AsyncConnectivityStateWatcherInterfaceD2Ev.exit, label %13

13:                                               ; preds = %_ZN9grpc_core13RefCountedPtrINS_12_GLOBAL__N_120ExternalStateWatcherEED2Ev.exit
  %14 = getelementptr inbounds nuw i8, ptr %12, i64 8
  %15 = load atomic i64, ptr %14 acquire, align 8
  %16 = icmp eq i64 %15, 4294967297
  %17 = trunc i64 %15 to i32
  br i1 %16, label %18, label %26

18:                                               ; preds = %13
  store i32 0, ptr %14, align 8, !tbaa !256
  %19 = getelementptr inbounds nuw i8, ptr %12, i64 12
  store i32 0, ptr %19, align 4, !tbaa !258
  %20 = load ptr, ptr %12, align 8, !tbaa !8
  %21 = getelementptr inbounds nuw i8, ptr %20, i64 16
  %22 = load ptr, ptr %21, align 8
  tail call void %22(ptr noundef nonnull align 8 dereferenceable(16) %12) #42
  %23 = load ptr, ptr %12, align 8, !tbaa !8
  %24 = getelementptr inbounds nuw i8, ptr %23, i64 24
  %25 = load ptr, ptr %24, align 8
  tail call void %25(ptr noundef nonnull align 8 dereferenceable(16) %12) #42
  br label %_ZN9grpc_core38AsyncConnectivityStateWatcherInterfaceD2Ev.exit

26:                                               ; preds = %13
  %27 = load i8, ptr @__libc_single_threaded, align 1, !tbaa !161
  %.not.i.i.i.i = icmp eq i8 %27, 0
  br i1 %.not.i.i.i.i, label %30, label %28

28:                                               ; preds = %26
  %29 = add nsw i32 %17, -1
  store i32 %29, ptr %14, align 4, !tbaa !233
  br label %_ZN9__gnu_cxx27__exchange_and_add_dispatchEPii.exit.i.i.i.i

30:                                               ; preds = %26
  %31 = atomicrmw volatile add ptr %14, i32 -1 acq_rel, align 4
  br label %_ZN9__gnu_cxx27__exchange_and_add_dispatchEPii.exit.i.i.i.i

_ZN9__gnu_cxx27__exchange_and_add_dispatchEPii.exit.i.i.i.i: ; preds = %30, %28
  %.0.i.i.i.i.i = phi i32 [ %17, %28 ], [ %31, %30 ]
  %32 = icmp eq i32 %.0.i.i.i.i.i, 1
  br i1 %32, label %33, label %_ZN9grpc_core38AsyncConnectivityStateWatcherInterfaceD2Ev.exit, !prof !26

33:                                               ; preds = %_ZN9__gnu_cxx27__exchange_and_add_dispatchEPii.exit.i.i.i.i
  tail call void @_ZNSt16_Sp_counted_baseILN9__gnu_cxx12_Lock_policyE2EE24_M_release_last_use_coldEv(ptr noundef nonnull align 8 dereferenceable(16) %12) #42
  br label %_ZN9grpc_core38AsyncConnectivityStateWatcherInterfaceD2Ev.exit

_ZN9grpc_core38AsyncConnectivityStateWatcherInterfaceD2Ev.exit: ; preds = %_ZN9grpc_core13RefCountedPtrINS_12_GLOBAL__N_120ExternalStateWatcherEED2Ev.exit, %18, %_ZN9__gnu_cxx27__exchange_and_add_dispatchEPii.exit.i.i.i.i, %33
  ret void
}